; Function Attrs: nounwind uwtable
define i32 @ossl_i2d_X448_PUBKEY(ptr noundef %0, ptr noundef %1) local_unnamed_addr #0 {
  %3 = icmp eq ptr %0, null
  br i1 %3, label %12, label %4

4:                                                ; preds = %2
  %5 = tail call ptr @EVP_PKEY_new() #9
  %6 = icmp eq ptr %5, null
  br i1 %6, label %7, label %8

7:                                                ; preds = %4
  tail call void @ERR_new() #9
  tail call void @ERR_set_debug(ptr noundef nonnull @.str, i32 noundef 997, ptr noundef nonnull @__func__.ossl_i2d_X448_PUBKEY) #9
  tail call void (i32, i32, ptr, ...) @ERR_set_error(i32 noundef 13, i32 noundef 524294, ptr noundef null) #9
  br label %12

8:                                                ; preds = %4
  %9 = tail call i32 @EVP_PKEY_assign(ptr noundef nonnull %5, i32 noundef 1035, ptr noundef nonnull %0) #9
  %10 = tail call i32 @i2d_PUBKEY(ptr noundef nonnull %5, ptr noundef %1)
  %11 = getelementptr inbounds nuw i8, ptr %5, i64 32
  store ptr null, ptr %11, align 8, !tbaa !55
  tail call void @EVP_PKEY_free(ptr noundef nonnull %5) #9
  br label %12

12:                                               ; preds = %2, %8, %7
  %.0 = phi i32 [ -1, %7 ], [ %10, %8 ], [ 0, %2 ]
  ret i32 %.0
}